BL51 BANKED LINKER/LOCATER V6.22                                                        08/19/2013  15:28:07  PAGE 1


BL51 BANKED LINKER/LOCATER V6.22, INVOKED BY:
D:\KEIL\C51\BIN\BL51.EXE machine.obj, main.obj TO Test RAMSIZE (256)


MEMORY MODEL: SMALL


INPUT MODULES INCLUDED:
  machine.obj (MACHINE)
  main.obj (MAIN)
  D:\KEIL\C51\LIB\C51S.LIB (?C_STARTUP)


LINK MAP OF MODULE:  Test (MACHINE)


            TYPE    BASE      LENGTH    RELOCATION   SEGMENT NAME
            -----------------------------------------------------

            * * * * * * *   D A T A   M E M O R Y   * * * * * * *
            REG     0000H     0008H     ABSOLUTE     "REG BANK 0"
            IDATA   0008H     0001H     UNIT         ?STACK

            * * * * * * *   C O D E   M E M O R Y   * * * * * * *
            CODE    0000H     0003H     ABSOLUTE     
            CODE    0003H     001EH     UNIT         ?PR?_DELAY_MACHINE?MACHINE
            CODE    0021H     0010H     UNIT         ?CO?MACHINE
            CODE    0031H     000DH     UNIT         ?PR?FSTEP?MACHINE
            CODE    003EH     000DH     UNIT         ?PR?BSTEP?MACHINE
            CODE    004BH     000CH     UNIT         ?C_C51STARTUP
            CODE    0057H     0005H     UNIT         ?PR?MAIN?MAIN



OVERLAY MAP OF MODULE:   Test (MACHINE)


SEGMENT
  +--> CALLED SEGMENT
---------------------
?C_C51STARTUP
  +--> ?PR?MAIN?MAIN

?PR?MAIN?MAIN
  +--> ?PR?BSTEP?MACHINE

?PR?BSTEP?MACHINE
  +--> ?CO?MACHINE
  +--> ?PR?_DELAY_MACHINE?MACHINE



SYMBOL TABLE OF MODULE:  Test (MACHINE)

  VALUE           TYPE          NAME
  ----------------------------------

  -------         MODULE        MACHINE
BL51 BANKED LINKER/LOCATER V6.22                                                      08/19/2013  15:28:07  PAGE 2


  C:0000H         SYMBOL        _ICE_DUMMY_
  C:003EH         PUBLIC        bStep
  D:0090H         PUBLIC        P1
  D:00B0H         PUBLIC        P3
  C:0031H         PUBLIC        fStep
  D:00A8H         PUBLIC        IE
  D:00B8H         PUBLIC        IP
  D:0098H         PUBLIC        SCON
  D:0088H         PUBLIC        TCON
  C:000BH         PUBLIC        _delay_machine
  D:00C8H         PUBLIC        T2CON
  C:0029H         PUBLIC        B_Rotation
  D:00D0H         PUBLIC        PSW
  C:0021H         PUBLIC        F_Rotation
  -------         PROC          L?0016
  -------         ENDPROC       L?0016
  -------         PROC          _DELAY_MACHINE
  D:0006H         SYMBOL        i
  -------         DO            
  D:0004H         SYMBOL        x
  D:0005H         SYMBOL        j
  -------         ENDDO         
  C:000BH         LINE#         9
  C:000BH         LINE#         11
  C:0014H         LINE#         12
  C:0020H         LINE#         13
  -------         ENDPROC       _DELAY_MACHINE
  -------         PROC          FSTEP
  -------         DO            
  D:0003H         SYMBOL        i
  -------         ENDDO         
  C:0031H         LINE#         15
  C:0031H         LINE#         17
  C:0033H         LINE#         18
  C:0036H         LINE#         19
  C:0039H         LINE#         20
  C:003DH         LINE#         21
  -------         ENDPROC       FSTEP
  -------         PROC          BSTEP
  -------         DO            
  D:0003H         SYMBOL        i
  -------         ENDDO         
  C:003EH         LINE#         23
  C:003EH         LINE#         25
  C:0040H         LINE#         26
  C:0043H         LINE#         27
  C:0046H         LINE#         28
  C:004AH         LINE#         29
  -------         ENDPROC       BSTEP
  -------         ENDMOD        MACHINE

  -------         MODULE        MAIN
  C:0000H         SYMBOL        _ICE_DUMMY_
  D:0090H         PUBLIC        P1
  D:00B0H         PUBLIC        P3
  D:00A8H         PUBLIC        IE
  D:00B8H         PUBLIC        IP
BL51 BANKED LINKER/LOCATER V6.22                                                      08/19/2013  15:28:07  PAGE 3


  C:0057H         PUBLIC        main
  D:0098H         PUBLIC        SCON
  D:0088H         PUBLIC        TCON
  D:00C8H         PUBLIC        T2CON
  D:00D0H         PUBLIC        PSW
  -------         PROC          MAIN
  C:0057H         LINE#         4
  C:0057H         LINE#         5
  C:0057H         LINE#         6
  C:005AH         LINE#         7
  -------         ENDPROC       MAIN
  -------         ENDMOD        MAIN

*** WARNING L16: UNCALLED SEGMENT, IGNORED FOR OVERLAY PROCESS
    SEGMENT: ?PR?FSTEP?MACHINE

Program Size: data=9.0 xdata=0 code=92
LINK/LOCATE RUN COMPLETE.  1 WARNING(S),  0 ERROR(S)
